Certificate:
    Data:
        Version: 3 (0x2)
        Serial Number: 4101 (0x1005)
    Signature Algorithm: sha256WithRSAEncryption
        Issuer: C=CN, ST=BJ, L=BJ, O=QLY, OU=Could, CN=www.qinglianyun.com/emailAddress=761183020@qq.com
        Validity
            Not Before: Mar 24 06:39:32 2021 GMT
            Not After : Mar 23 06:39:32 2026 GMT
        Subject: C=CN, ST=BJ, O=QLY, OU=Cloud, CN=lvsj/emailAddress=761183020@qq.com
        Subject Public Key Info:
            Public Key Algorithm: rsaEncryption
                Public-Key: (2048 bit)
                Modulus:
                    00:ab:4f:e6:41:89:03:30:55:b8:7c:d3:a0:55:cd:
                    d0:e2:ff:ec:78:2e:a0:0e:96:14:54:ce:64:a5:e7:
                    07:d7:73:34:a4:2d:c6:59:8d:0f:91:b2:42:ae:0c:
                    39:db:18:0c:57:a1:27:c2:72:b7:80:ce:1a:2e:76:
                    94:5b:35:9b:e3:d9:8e:bc:bb:ed:a4:36:62:2a:75:
                    24:eb:f6:1d:ab:bd:21:14:ce:4e:cc:16:26:86:aa:
                    99:1f:b5:13:4a:14:1d:d8:9e:13:d4:8a:19:33:3f:
                    6a:d9:3d:29:bd:f2:25:25:e4:03:61:7a:b7:e1:47:
                    8a:18:72:c3:d7:c8:a9:d3:c3:20:60:99:41:cf:eb:
                    6b:2c:69:1c:d0:36:6b:ad:a3:82:7c:df:f0:8c:9a:
                    90:b9:64:42:fa:62:35:b5:a2:c6:c4:5f:60:7e:0f:
                    57:eb:31:18:c9:83:9f:a8:6c:19:86:fd:51:23:33:
                    38:70:14:a8:af:6b:11:3c:00:31:4c:06:18:66:fd:
                    ab:16:d4:08:30:72:68:e6:71:08:e9:f5:24:63:93:
                    13:f8:f0:6c:be:18:8e:f6:b8:81:59:76:ca:f6:65:
                    65:9c:f6:6e:10:90:39:87:c9:9d:2d:58:5e:24:b9:
                    cc:06:fc:42:79:8f:6a:30:26:a2:6d:ce:da:c9:16:
                    6b:81
                Exponent: 65537 (0x10001)
        X509v3 extensions:
            X509v3 Basic Constraints: 
                CA:FALSE
            Netscape Comment: 
                OpenSSL Generated Certificate
            X509v3 Subject Key Identifier: 
                9F:A9:A4:31:BE:2E:D7:F9:91:29:42:CA:6F:45:A7:5D:A4:2B:DC:5A
            X509v3 Authority Key Identifier: 
                DirName:/C=CN/ST=BJ/L=BJ/O=QLY/OU=Could/CN=www.qinglianyun.com/emailAddress=761183020@qq.com
                serial:B5:DA:94:6C:98:63:9D:C4

    Signature Algorithm: sha256WithRSAEncryption
         71:b5:c7:78:61:45:fb:71:b4:07:86:19:37:79:56:7c:cd:6d:
         7e:76:34:9b:67:ec:cb:5c:8a:91:83:1d:8f:05:25:24:57:19:
         2d:58:fc:71:10:58:f0:23:8f:50:fd:24:69:aa:07:af:02:26:
         34:89:a3:fd:23:07:ca:3b:7c:55:a8:34:e2:4e:d6:6c:e9:67:
         2b:45:3c:6f:34:a5:0e:5e:4e:48:bf:59:f5:c5:1d:52:f0:85:
         da:8e:ae:05:9b:6f:0c:e3:2a:30:24:20:96:e5:6f:0e:89:48:
         95:51:f9:db:cb:1f:d4:37:a5:aa:92:44:38:c7:78:cb:d3:ed:
         d8:1c:f9:1b:aa:54:dc:f8:5d:00:bb:25:db:a2:ec:f7:49:65:
         c5:5e:b7:ae:51:a7:0d:79:ab:f3:7c:95:04:21:3e:7b:ea:06:
         a5:11:ec:a3:dd:8b:f3:4e:0e:e3:5e:62:53:93:8f:15:15:77:
         f2:73:7a:0d:2b:50:06:c7:67:54:a7:db:8d:9a:dd:23:2d:04:
         5f:20:58:d3:ac:8e:98:b5:fc:16:ca:c2:70:49:ec:a8:a2:9a:
         2e:15:cb:19:af:bf:f3:1d:8d:99:68:5a:8d:49:ff:31:89:e4:
         a2:a2:c5:d6:fc:d0:01:7e:6f:76:a5:fd:cb:79:40:c0:04:e1:
         77:0c:e7:39
-----BEGIN CERTIFICATE-----
MIIEbDCCA1SgAwIBAgICEAUwDQYJKoZIhvcNAQELBQAwgYQxCzAJBgNVBAYTAkNO
MQswCQYDVQQIDAJCSjELMAkGA1UEBwwCQkoxDDAKBgNVBAoMA1FMWTEOMAwGA1UE
CwwFQ291bGQxHDAaBgNVBAMME3d3dy5xaW5nbGlhbnl1bi5jb20xHzAdBgkqhkiG
9w0BCQEWEDc2MTE4MzAyMEBxcS5jb20wHhcNMjEwMzI0MDYzOTMyWhcNMjYwMzIz
MDYzOTMyWjBoMQswCQYDVQQGEwJDTjELMAkGA1UECAwCQkoxDDAKBgNVBAoMA1FM
WTEOMAwGA1UECwwFQ2xvdWQxDTALBgNVBAMMBGx2c2oxHzAdBgkqhkiG9w0BCQEW
EDc2MTE4MzAyMEBxcS5jb20wggEiMA0GCSqGSIb3DQEBAQUAA4IBDwAwggEKAoIB
AQCrT+ZBiQMwVbh806BVzdDi/+x4LqAOlhRUzmSl5wfXczSkLcZZjQ+RskKuDDnb
GAxXoSfCcreAzhoudpRbNZvj2Y68u+2kNmIqdSTr9h2rvSEUzk7MFiaGqpkftRNK
FB3YnhPUihkzP2rZPSm98iUl5ANherfhR4oYcsPXyKnTwyBgmUHP62ssaRzQNmut
o4J83/CMmpC5ZEL6YjW1osbEX2B+D1frMRjJg5+obBmG/VEjMzhwFKivaxE8ADFM
Bhhm/asW1AgwcmjmcQjp9SRjkxP48Gy+GI72uIFZdsr2ZWWc9m4QkDmHyZ0tWF4k
ucwG/EJ5j2owJqJtztrJFmuBAgMBAAGjggEBMIH+MAkGA1UdEwQCMAAwLAYJYIZI
AYb4QgENBB8WHU9wZW5TU0wgR2VuZXJhdGVkIENlcnRpZmljYXRlMB0GA1UdDgQW
BBSfqaQxvi7X+ZEpQspvRaddpCvcWjCBowYDVR0jBIGbMIGYoYGKpIGHMIGEMQsw
CQYDVQQGEwJDTjELMAkGA1UECAwCQkoxCzAJBgNVBAcMAkJKMQwwCgYDVQQKDANR
TFkxDjAMBgNVBAsMBUNvdWxkMRwwGgYDVQQDDBN3d3cucWluZ2xpYW55dW4uY29t
MR8wHQYJKoZIhvcNAQkBFhA3NjExODMwMjBAcXEuY29tggkAtdqUbJhjncQwDQYJ
KoZIhvcNAQELBQADggEBAHG1x3hhRftxtAeGGTd5VnzNbX52NJtn7MtcipGDHY8F
JSRXGS1Y/HEQWPAjj1D9JGmqB68CJjSJo/0jB8o7fFWoNOJO1mzpZytFPG80pQ5e
Tki/WfXFHVLwhdqOrgWbbwzjKjAkIJblbw6JSJVR+dvLH9Q3paqSRDjHeMvT7dgc
+RuqVNz4XQC7Jdui7PdJZcVet65Rpw15q/N8lQQhPnvqBqUR7KPdi/NODuNeYlOT
jxUVd/Jzeg0rUAbHZ1Sn242a3SMtBF8gWNOsjpi1/BbKwnBJ7Kiimi4Vyxmvv/Md
jZloWo1J/zGJ5KKixdb80AF+b3al/ct5QMAE4XcM5zk=
-----END CERTIFICATE-----
